; Function Attrs: mustprogress uwtable
define void @_ZNK6icu_7511PluralRules8getRulesEv(ptr noalias sret(%"class.icu_75::UnicodeString") align 8 %agg.result, ptr nocapture noundef nonnull readonly align 8 dereferenceable(28) %this) local_unnamed_addr #1 align 2 personality ptr @__gxx_personality_v0 {
entry:
  store ptr getelementptr inbounds ({ [13 x ptr] }, ptr @_ZTVN6icu_7513UnicodeStringE, i64 0, i32 0, i64 2), ptr %agg.result, align 8
  %fUnion2.i = getelementptr inbounds i8, ptr %agg.result, i64 8
  store i16 2, ptr %fUnion2.i, align 8
  %mRules = getelementptr inbounds i8, ptr %this, i64 8
  %0 = load ptr, ptr %mRules, align 8
  %cmp.not = icmp eq ptr %0, null
  br i1 %cmp.not, label %nrvo.skipdtor, label %if.then

if.then:                                          ; preds = %entry
  invoke void @_ZN6icu_759RuleChain9dumpRulesERNS_13UnicodeStringE(ptr noundef nonnull align 8 dereferenceable(224) %0, ptr noundef nonnull align 8 dereferenceable(64) %agg.result)
          to label %nrvo.skipdtor unwind label %lpad

lpad:                                             ; preds = %if.then
  %1 = landingpad { ptr, i32 }
          cleanup
  tail call void @_ZN6icu_7513UnicodeStringD1Ev(ptr noundef nonnull align 8 dereferenceable(64) %agg.result) #25
  resume { ptr, i32 } %1

nrvo.skipdtor:                                    ; preds = %entry, %if.then
  ret void
}